---
triple:          'arm64-apple-darwin'
binary-path:     '/Users/davidteixeira/Documents/GitHub/SDEV230GroupProject/CensusHub'
relocations:
  - { offsetInCU: 0x2F22, offset: 0x2F22, size: 0x8, addend: 0x0, symName: __ZNSt3__124__put_character_sequenceB7v160006IcNS_11char_traitsIcEEEERNS_13basic_ostreamIT_T0_EES7_PKS4_m, symObjAddr: 0x248, symBinAddr: 0x1000038E8, symSize: 0x1EC }
  - { offsetInCU: 0x4872, offset: 0x4872, size: 0x8, addend: 0x0, symName: __ZNSt3__1lsB7v160006INS_11char_traitsIcEEEERNS_13basic_ostreamIcT_EES6_PKc, symObjAddr: 0x144, symBinAddr: 0x1000037E4, symSize: 0x48 }
  - { offsetInCU: 0x48B8, offset: 0x48B8, size: 0x8, addend: 0x0, symName: __ZNSt3__14endlB7v160006IcNS_11char_traitsIcEEEERNS_13basic_ostreamIT_T0_EES7_, symObjAddr: 0x1B8, symBinAddr: 0x100003858, symSize: 0x58 }
  - { offsetInCU: 0x48F8, offset: 0x48F8, size: 0x8, addend: 0x0, symName: __ZNSt3__116__pad_and_outputB7v160006IcNS_11char_traitsIcEEEENS_19ostreambuf_iteratorIT_T0_EES6_PKS4_S8_S8_RNS_8ios_baseES4_, symObjAddr: 0x484, symBinAddr: 0x100003B24, symSize: 0x240 }
  - { offsetInCU: 0x49C7, offset: 0x49C7, size: 0x8, addend: 0x0, symName: __ZNSt3__119__debug_db_insert_cB7v160006INS_12basic_stringIcNS_11char_traitsIcEENS_9allocatorIcEEEEEEvPT_, symObjAddr: 0x938, symBinAddr: 0x100003FD8, symSize: 0x10 }
  - { offsetInCU: 0x49F8, offset: 0x49F8, size: 0x8, addend: 0x0, symName: __ZNSt3__112__to_addressB7v160006IKcEEPT_S3_, symObjAddr: 0xA04, symBinAddr: 0x1000040A4, symSize: 0x14 }
  - { offsetInCU: 0x4A60, offset: 0x4A60, size: 0x8, addend: 0x0, symName: __ZNSt3__19use_facetB7v160006INS_5ctypeIcEEEERKT_RKNS_6localeE, symObjAddr: 0xC84, symBinAddr: 0x100004324, symSize: 0x2C }
  - { offsetInCU: 0x4F2F, offset: 0x4F2F, size: 0x8, addend: 0x0, symName: __ZNSt3__118__constexpr_strlenB7v160006EPKc, symObjAddr: 0xD1C, symBinAddr: 0x1000043BC, symSize: 0x24 }
  - { offsetInCU: 0x74CE, offset: 0x74CE, size: 0x8, addend: 0x0, symName: _main, symObjAddr: 0x0, symBinAddr: 0x1000036A0, symSize: 0x118 }
  - { offsetInCU: 0x76B5, offset: 0x76B5, size: 0x8, addend: 0x0, symName: __ZN16ControlFlowClassD1Ev, symObjAddr: 0x118, symBinAddr: 0x1000037B8, symSize: 0x2C }
  - { offsetInCU: 0x76DF, offset: 0x76DF, size: 0x8, addend: 0x0, symName: __ZNSt3__113basic_ostreamIcNS_11char_traitsIcEEElsB7v160006EPFRS3_S4_E, symObjAddr: 0x18C, symBinAddr: 0x10000382C, symSize: 0x2C }
  - { offsetInCU: 0x7711, offset: 0x7711, size: 0x8, addend: 0x0, symName: __ZN16ControlFlowClassD2Ev, symObjAddr: 0x21C, symBinAddr: 0x1000038BC, symSize: 0x2C }
  - { offsetInCU: 0x773B, offset: 0x773B, size: 0x8, addend: 0x0, symName: __ZNSt3__111char_traitsIcE6lengthEPKc, symObjAddr: 0x434, symBinAddr: 0x100003AD4, symSize: 0x34 }
  - { offsetInCU: 0x777B, offset: 0x777B, size: 0x8, addend: 0x0, symName: __ZNKSt3__113basic_ostreamIcNS_11char_traitsIcEEE6sentrycvbB7v160006Ev, symObjAddr: 0x468, symBinAddr: 0x100003B08, symSize: 0x1C }
  - { offsetInCU: 0x779F, offset: 0x779F, size: 0x8, addend: 0x0, symName: __ZNSt3__119ostreambuf_iteratorIcNS_11char_traitsIcEEEC1B7v160006ERNS_13basic_ostreamIcS2_EE, symObjAddr: 0x6C4, symBinAddr: 0x100003D64, symSize: 0x34 }
  - { offsetInCU: 0x77D5, offset: 0x77D5, size: 0x8, addend: 0x0, symName: __ZNKSt3__18ios_base5flagsB7v160006Ev, symObjAddr: 0x6F8, symBinAddr: 0x100003D98, symSize: 0x18 }
  - { offsetInCU: 0x77FB, offset: 0x77FB, size: 0x8, addend: 0x0, symName: __ZNKSt3__19basic_iosIcNS_11char_traitsIcEEE4fillB7v160006Ev, symObjAddr: 0x710, symBinAddr: 0x100003DB0, symSize: 0x64 }
  - { offsetInCU: 0x7821, offset: 0x7821, size: 0x8, addend: 0x0, symName: __ZNKSt3__119ostreambuf_iteratorIcNS_11char_traitsIcEEE6failedB7v160006Ev, symObjAddr: 0x774, symBinAddr: 0x100003E14, symSize: 0x24 }
  - { offsetInCU: 0x7845, offset: 0x7845, size: 0x8, addend: 0x0, symName: __ZNSt3__19basic_iosIcNS_11char_traitsIcEEE8setstateB7v160006Ej, symObjAddr: 0x798, symBinAddr: 0x100003E38, symSize: 0x2C }
  - { offsetInCU: 0x7878, offset: 0x7878, size: 0x8, addend: 0x0, symName: __ZNKSt3__18ios_base5widthB7v160006Ev, symObjAddr: 0x7C4, symBinAddr: 0x100003E64, symSize: 0x18 }
  - { offsetInCU: 0x789E, offset: 0x789E, size: 0x8, addend: 0x0, symName: __ZNSt3__115basic_streambufIcNS_11char_traitsIcEEE5sputnB7v160006EPKcl, symObjAddr: 0x7DC, symBinAddr: 0x100003E7C, symSize: 0x3C }
  - { offsetInCU: 0x78DE, offset: 0x78DE, size: 0x8, addend: 0x0, symName: __ZNSt3__112basic_stringIcNS_11char_traitsIcEENS_9allocatorIcEEEC1B7v160006Emc, symObjAddr: 0x818, symBinAddr: 0x100003EB8, symSize: 0x3C }
  - { offsetInCU: 0x7924, offset: 0x7924, size: 0x8, addend: 0x0, symName: __ZNKSt3__112basic_stringIcNS_11char_traitsIcEENS_9allocatorIcEEE4dataB7v160006Ev, symObjAddr: 0x854, symBinAddr: 0x100003EF4, symSize: 0x28 }
  - { offsetInCU: 0x7948, offset: 0x7948, size: 0x8, addend: 0x0, symName: __ZNSt3__18ios_base5widthB7v160006El, symObjAddr: 0x87C, symBinAddr: 0x100003F1C, symSize: 0x2C }
  - { offsetInCU: 0x798C, offset: 0x798C, size: 0x8, addend: 0x0, symName: __ZNSt3__112basic_stringIcNS_11char_traitsIcEENS_9allocatorIcEEEC2B7v160006Emc, symObjAddr: 0x8A8, symBinAddr: 0x100003F48, symSize: 0x54 }
  - { offsetInCU: 0x79D7, offset: 0x79D7, size: 0x8, addend: 0x0, symName: __ZNSt3__117__compressed_pairINS_12basic_stringIcNS_11char_traitsIcEENS_9allocatorIcEEE5__repES5_EC1B7v160006INS_18__default_init_tagESA_EEOT_OT0_, symObjAddr: 0x8FC, symBinAddr: 0x100003F9C, symSize: 0x3C }
  - { offsetInCU: 0x7A2D, offset: 0x7A2D, size: 0x8, addend: 0x0, symName: __ZNSt3__117__compressed_pairINS_12basic_stringIcNS_11char_traitsIcEENS_9allocatorIcEEE5__repES5_EC2B7v160006INS_18__default_init_tagESA_EEOT_OT0_, symObjAddr: 0x948, symBinAddr: 0x100003FE8, symSize: 0x3C }
  - { offsetInCU: 0x7A83, offset: 0x7A83, size: 0x8, addend: 0x0, symName: __ZNSt3__122__compressed_pair_elemINS_12basic_stringIcNS_11char_traitsIcEENS_9allocatorIcEEE5__repELi0ELb0EEC2B7v160006ENS_18__default_init_tagE, symObjAddr: 0x984, symBinAddr: 0x100004024, symSize: 0x14 }
  - { offsetInCU: 0x7AB5, offset: 0x7AB5, size: 0x8, addend: 0x0, symName: __ZNSt3__122__compressed_pair_elemINS_9allocatorIcEELi1ELb1EEC2B7v160006ENS_18__default_init_tagE, symObjAddr: 0x998, symBinAddr: 0x100004038, symSize: 0x2C }
  - { offsetInCU: 0x7AE7, offset: 0x7AE7, size: 0x8, addend: 0x0, symName: __ZNSt3__19allocatorIcEC2B7v160006Ev, symObjAddr: 0x9C4, symBinAddr: 0x100004064, symSize: 0x2C }
  - { offsetInCU: 0x7B0F, offset: 0x7B0F, size: 0x8, addend: 0x0, symName: __ZNSt3__116__non_trivial_ifILb1ENS_9allocatorIcEEEC2B7v160006Ev, symObjAddr: 0x9F0, symBinAddr: 0x100004090, symSize: 0x14 }
  - { offsetInCU: 0x7B37, offset: 0x7B37, size: 0x8, addend: 0x0, symName: __ZNKSt3__112basic_stringIcNS_11char_traitsIcEENS_9allocatorIcEEE13__get_pointerB7v160006Ev, symObjAddr: 0xA18, symBinAddr: 0x1000040B8, symSize: 0x54 }
  - { offsetInCU: 0x7B5B, offset: 0x7B5B, size: 0x8, addend: 0x0, symName: __ZNKSt3__112basic_stringIcNS_11char_traitsIcEENS_9allocatorIcEEE9__is_longB7v160006Ev, symObjAddr: 0xA6C, symBinAddr: 0x10000410C, symSize: 0x38 }
  - { offsetInCU: 0x7B7F, offset: 0x7B7F, size: 0x8, addend: 0x0, symName: __ZNKSt3__112basic_stringIcNS_11char_traitsIcEENS_9allocatorIcEEE18__get_long_pointerB7v160006Ev, symObjAddr: 0xAA4, symBinAddr: 0x100004144, symSize: 0x28 }
  - { offsetInCU: 0x7BA3, offset: 0x7BA3, size: 0x8, addend: 0x0, symName: __ZNKSt3__112basic_stringIcNS_11char_traitsIcEENS_9allocatorIcEEE19__get_short_pointerB7v160006Ev, symObjAddr: 0xACC, symBinAddr: 0x10000416C, symSize: 0x28 }
  - { offsetInCU: 0x7BC7, offset: 0x7BC7, size: 0x8, addend: 0x0, symName: __ZNKSt3__117__compressed_pairINS_12basic_stringIcNS_11char_traitsIcEENS_9allocatorIcEEE5__repES5_E5firstB7v160006Ev, symObjAddr: 0xAF4, symBinAddr: 0x100004194, symSize: 0x24 }
  - { offsetInCU: 0x7BEB, offset: 0x7BEB, size: 0x8, addend: 0x0, symName: __ZNKSt3__122__compressed_pair_elemINS_12basic_stringIcNS_11char_traitsIcEENS_9allocatorIcEEE5__repELi0ELb0EE5__getB7v160006Ev, symObjAddr: 0xB18, symBinAddr: 0x1000041B8, symSize: 0x14 }
  - { offsetInCU: 0x7C10, offset: 0x7C10, size: 0x8, addend: 0x0, symName: __ZNSt3__114pointer_traitsIPKcE10pointer_toB7v160006ERS1_, symObjAddr: 0xB2C, symBinAddr: 0x1000041CC, symSize: 0x14 }
  - { offsetInCU: 0x7C32, offset: 0x7C32, size: 0x8, addend: 0x0, symName: __ZNSt3__119ostreambuf_iteratorIcNS_11char_traitsIcEEEC2B7v160006ERNS_13basic_ostreamIcS2_EE, symObjAddr: 0xB40, symBinAddr: 0x1000041E0, symSize: 0x54 }
  - { offsetInCU: 0x7C68, offset: 0x7C68, size: 0x8, addend: 0x0, symName: __ZNKSt3__19basic_iosIcNS_11char_traitsIcEEE5rdbufB7v160006Ev, symObjAddr: 0xB94, symBinAddr: 0x100004234, symSize: 0x24 }
  - { offsetInCU: 0x7C8E, offset: 0x7C8E, size: 0x8, addend: 0x0, symName: __ZNKSt3__18ios_base5rdbufB7v160006Ev, symObjAddr: 0xBB8, symBinAddr: 0x100004258, symSize: 0x18 }
  - { offsetInCU: 0x7CB3, offset: 0x7CB3, size: 0x8, addend: 0x0, symName: __ZNSt3__111char_traitsIcE11eq_int_typeEii, symObjAddr: 0xBD0, symBinAddr: 0x100004270, symSize: 0x28 }
  - { offsetInCU: 0x7CE4, offset: 0x7CE4, size: 0x8, addend: 0x0, symName: __ZNSt3__111char_traitsIcE3eofEv, symObjAddr: 0xBF8, symBinAddr: 0x100004298, symSize: 0x8 }
  - { offsetInCU: 0x7CF7, offset: 0x7CF7, size: 0x8, addend: 0x0, symName: __ZNKSt3__19basic_iosIcNS_11char_traitsIcEEE5widenB7v160006Ec, symObjAddr: 0xC00, symBinAddr: 0x1000042A0, symSize: 0x84 }
  - { offsetInCU: 0x7D63, offset: 0x7D63, size: 0x8, addend: 0x0, symName: __ZNKSt3__15ctypeIcE5widenB7v160006Ec, symObjAddr: 0xCB0, symBinAddr: 0x100004350, symSize: 0x38 }
  - { offsetInCU: 0x7D96, offset: 0x7D96, size: 0x8, addend: 0x0, symName: __ZNSt3__18ios_base8setstateB7v160006Ej, symObjAddr: 0xCE8, symBinAddr: 0x100004388, symSize: 0x34 }
  - { offsetInCU: 0x5DD7, offset: 0xDC0B, size: 0x8, addend: 0x0, symName: __ZN16ControlFlowClassC2Ev, symObjAddr: 0x0, symBinAddr: 0x1000043E0, symSize: 0x70 }
  - { offsetInCU: 0x5E06, offset: 0xDC3A, size: 0x8, addend: 0x0, symName: __ZNSt3__112basic_stringIcNS_11char_traitsIcEENS_9allocatorIcEEEC1B7v160006IDnEEPKc, symObjAddr: 0x70, symBinAddr: 0x100004450, symSize: 0x34 }
  - { offsetInCU: 0x5E43, offset: 0xDC77, size: 0x8, addend: 0x0, symName: __ZN16ControlFlowClass11ClearScreenEv, symObjAddr: 0xA4, symBinAddr: 0x100004484, symSize: 0x28 }
  - { offsetInCU: 0x5E6A, offset: 0xDC9E, size: 0x8, addend: 0x0, symName: __ZN16ControlFlowClass17DisplayStartUpMsgEv, symObjAddr: 0xCC, symBinAddr: 0x1000044AC, symSize: 0x144 }
  - { offsetInCU: 0x5E91, offset: 0xDCC5, size: 0x8, addend: 0x0, symName: __ZN16ControlFlowClassC1Ev, symObjAddr: 0x210, symBinAddr: 0x1000045F0, symSize: 0x2C }
  - { offsetInCU: 0x5EBB, offset: 0xDCEF, size: 0x8, addend: 0x0, symName: __ZN16ControlFlowClass15DisplayLoginMsgEv, symObjAddr: 0x308, symBinAddr: 0x10000461C, symSize: 0xE8 }
  - { offsetInCU: 0x5EE2, offset: 0xDD16, size: 0x8, addend: 0x0, symName: __ZN16ControlFlowClass21Display_DashBoardMenuEv, symObjAddr: 0x3F0, symBinAddr: 0x100004704, symSize: 0x108 }
  - { offsetInCU: 0x5F09, offset: 0xDD3D, size: 0x8, addend: 0x0, symName: __ZN16ControlFlowClass22Display_HouseHolds_MsgEv, symObjAddr: 0x4F8, symBinAddr: 0x10000480C, symSize: 0xD8 }
  - { offsetInCU: 0x5F30, offset: 0xDD64, size: 0x8, addend: 0x0, symName: __ZN16ControlFlowClass19Display_Persons_MsgEv, symObjAddr: 0x5D0, symBinAddr: 0x1000048E4, symSize: 0x108 }
  - { offsetInCU: 0x5F57, offset: 0xDD8B, size: 0x8, addend: 0x0, symName: __ZN16ControlFlowClass21Display_Economics_MsgEv, symObjAddr: 0x6D8, symBinAddr: 0x1000049EC, symSize: 0xE8 }
  - { offsetInCU: 0x5F7E, offset: 0xDDB2, size: 0x8, addend: 0x0, symName: __ZN16ControlFlowClass23Display_Geographics_MsgEv, symObjAddr: 0x7C0, symBinAddr: 0x100004AD4, symSize: 0xE8 }
  - { offsetInCU: 0x5FA5, offset: 0xDDD9, size: 0x8, addend: 0x0, symName: __ZN16ControlFlowClass21Display_UserDemos_MsgEv, symObjAddr: 0x8A8, symBinAddr: 0x100004BBC, symSize: 0xC8 }
  - { offsetInCU: 0x5FCC, offset: 0xDE00, size: 0x8, addend: 0x0, symName: __ZNK16ControlFlowClass21Get_EmployeeData_FileEv, symObjAddr: 0x970, symBinAddr: 0x100004C84, symSize: 0x38 }
  - { offsetInCU: 0x5FF3, offset: 0xDE27, size: 0x8, addend: 0x0, symName: __ZN16ControlFlowClass9LoginMenuEv, symObjAddr: 0x9A8, symBinAddr: 0x100004CBC, symSize: 0x35C }
  - { offsetInCU: 0x6060, offset: 0xDE94, size: 0x8, addend: 0x0, symName: __ZNKSt3__19basic_iosIcNS_11char_traitsIcEEE4failB7v160006Ev, symObjAddr: 0xD04, symBinAddr: 0x100005018, symSize: 0x28 }
  - { offsetInCU: 0x6084, offset: 0xDEB8, size: 0x8, addend: 0x0, symName: __ZNSt3__19basic_iosIcNS_11char_traitsIcEEE5clearB7v160006Ej, symObjAddr: 0xD2C, symBinAddr: 0x100005040, symSize: 0x2C }
  - { offsetInCU: 0x60B8, offset: 0xDEEC, size: 0x8, addend: 0x0, symName: __ZNSt3__114numeric_limitsIlE3maxB7v160006Ev, symObjAddr: 0xD58, symBinAddr: 0x10000506C, symSize: 0x14 }
  - { offsetInCU: 0x60CC, offset: 0xDF00, size: 0x8, addend: 0x0, symName: __ZN16ControlFlowClass11ExitProgramEv, symObjAddr: 0xD6C, symBinAddr: 0x100005080, symSize: 0x18 }
  - { offsetInCU: 0x6638, offset: 0xE46C, size: 0x8, addend: 0x0, symName: __ZN9UserClassD1Ev, symObjAddr: 0xD84, symBinAddr: 0x100005098, symSize: 0x2C }
  - { offsetInCU: 0x6662, offset: 0xE496, size: 0x8, addend: 0x0, symName: __ZN16ControlFlowClass14Main_DashboardEv, symObjAddr: 0xDBC, symBinAddr: 0x1000050C4, symSize: 0x300 }
  - { offsetInCU: 0x66B3, offset: 0xE4E7, size: 0x8, addend: 0x0, symName: __ZN16ControlFlowClass16Set_Persons_InfoEv, symObjAddr: 0x10BC, symBinAddr: 0x1000053C4, symSize: 0x134 }
  - { offsetInCU: 0x6719, offset: 0xE54D, size: 0x8, addend: 0x0, symName: __ZN16ControlFlowClass21Generate_CensusReportEv, symObjAddr: 0x11F0, symBinAddr: 0x1000054F8, symSize: 0x30 }
  - { offsetInCU: 0x6741, offset: 0xE575, size: 0x8, addend: 0x0, symName: __ZN16ControlFlowClass19Set_Households_InfoEv, symObjAddr: 0x1220, symBinAddr: 0x100005528, symSize: 0x38 }
  - { offsetInCU: 0x6768, offset: 0xE59C, size: 0x8, addend: 0x0, symName: __ZN11PersonClassD1Ev, symObjAddr: 0x1258, symBinAddr: 0x100005560, symSize: 0x2C }
  - { offsetInCU: 0x6793, offset: 0xE5C7, size: 0x8, addend: 0x0, symName: __ZN16ControlFlowClass18Set_Economics_InfoEv, symObjAddr: 0x1284, symBinAddr: 0x10000558C, symSize: 0x38 }
  - { offsetInCU: 0x67BB, offset: 0xE5EF, size: 0x8, addend: 0x0, symName: __ZN16ControlFlowClass20Set_Geographics_InfoEv, symObjAddr: 0x12BC, symBinAddr: 0x1000055C4, symSize: 0x30 }
  - { offsetInCU: 0x67E3, offset: 0xE617, size: 0x8, addend: 0x0, symName: __ZNSt3__123__libcpp_numeric_limitsIlLb1EE3maxB7v160006Ev, symObjAddr: 0x12EC, symBinAddr: 0x1000055F4, symSize: 0x8 }
  - { offsetInCU: 0x67F6, offset: 0xE62A, size: 0x8, addend: 0x0, symName: __ZN9UserClassD2Ev, symObjAddr: 0x12F4, symBinAddr: 0x1000055FC, symSize: 0x38 }
  - { offsetInCU: 0x6820, offset: 0xE654, size: 0x8, addend: 0x0, symName: __ZN11PersonClassD2Ev, symObjAddr: 0x132C, symBinAddr: 0x100005634, symSize: 0x84 }
  - { offsetInCU: 0x684A, offset: 0xE67E, size: 0x8, addend: 0x0, symName: __ZNSt3__112basic_stringIcNS_11char_traitsIcEENS_9allocatorIcEEEC2B7v160006IDnEEPKc, symObjAddr: 0x13B0, symBinAddr: 0x1000056B8, symSize: 0x60 }
  - { offsetInCU: 0x6888, offset: 0xE6BC, size: 0x8, addend: 0x0, symName: __ZNKSt3__18ios_base4failB7v160006Ev, symObjAddr: 0x1F08, symBinAddr: 0x100005718, symSize: 0x28 }
  - { offsetInCU: 0x476B, offset: 0x12E6F, size: 0x8, addend: 0x0, symName: __ZNSt3__1rsB7v160006IcNS_11char_traitsIcEENS_9allocatorIcEEEERNS_13basic_istreamIT_T0_EES9_RNS_12basic_stringIS6_S7_T1_EE, symObjAddr: 0x7A8, symBinAddr: 0x100005DE8, symSize: 0x30C }
  - { offsetInCU: 0x4838, offset: 0x12F3C, size: 0x8, addend: 0x0, symName: __ZNSt3__1rsB7v160006IcNS_11char_traitsIcEEEERNS_13basic_istreamIT_T0_EES7_RS4_, symObjAddr: 0xF90, symBinAddr: 0x100006590, symSize: 0x18C }
  - { offsetInCU: 0x48BA, offset: 0x12FBE, size: 0x8, addend: 0x0, symName: '__ZNSt3__19remove_ifB7v160006INS_11__wrap_iterIPcEEZ21trimSpecialCharactersRNS_12basic_stringIcNS_11char_traitsIcEENS_9allocatorIcEEEEE3$_0EET_SC_SC_T0_', symObjAddr: 0x1828, symBinAddr: 0x100006E1C, symSize: 0xFC }
  - { offsetInCU: 0x5702, offset: 0x13E06, size: 0x8, addend: 0x0, symName: __ZNSt3__17getlineB7v160006IcNS_11char_traitsIcEENS_9allocatorIcEEEERNS_13basic_istreamIT_T0_EES9_RNS_12basic_stringIS6_S7_T1_EE, symObjAddr: 0x1CB0, symBinAddr: 0x1000072A4, symSize: 0x5C }
  - { offsetInCU: 0x5AA0, offset: 0x141A4, size: 0x8, addend: 0x0, symName: __ZNSt3__1eqB7v160006INS_9allocatorIcEEEEbRKNS_12basic_stringIcNS_11char_traitsIcEET_EES9_, symObjAddr: 0x1E34, symBinAddr: 0x100007428, symSize: 0x148 }
  - { offsetInCU: 0x5C8B, offset: 0x1438F, size: 0x8, addend: 0x0, symName: __ZNSt3__1lsB7v160006IcNS_11char_traitsIcEENS_9allocatorIcEEEERNS_13basic_ostreamIT_T0_EES9_RKNS_12basic_stringIS6_S7_T1_EE, symObjAddr: 0x225C, symBinAddr: 0x1000077A0, symSize: 0x4C }
  - { offsetInCU: 0x5CEE, offset: 0x143F2, size: 0x8, addend: 0x0, symName: __ZNSt3__125__debug_db_invalidate_allB7v160006INS_12basic_stringIcNS_11char_traitsIcEENS_9allocatorIcEEEEEEvPT_, symObjAddr: 0x28D8, symBinAddr: 0x100007C7C, symSize: 0x10 }
  - { offsetInCU: 0x5F5E, offset: 0x14662, size: 0x8, addend: 0x0, symName: '__ZNSt3__17find_ifB7v160006INS_11__wrap_iterIPcEERZ21trimSpecialCharactersRNS_12basic_stringIcNS_11char_traitsIcEENS_9allocatorIcEEEEE3$_0EET_SD_SD_T0_', symObjAddr: 0x3A24, symBinAddr: 0x100008328, symSize: 0x84 }
  - { offsetInCU: 0x5FB9, offset: 0x146BD, size: 0x8, addend: 0x0, symName: __ZNSt3__1neB7v160006IPcEEbRKNS_11__wrap_iterIT_EES6_, symObjAddr: 0x3AA8, symBinAddr: 0x1000083AC, symSize: 0x34 }
  - { offsetInCU: 0x5FFC, offset: 0x14700, size: 0x8, addend: 0x0, symName: __ZNSt3__1eqB7v160006IPcEEbRKNS_11__wrap_iterIT_EES6_, symObjAddr: 0x3B48, symBinAddr: 0x10000844C, symSize: 0x48 }
  - { offsetInCU: 0x603F, offset: 0x14743, size: 0x8, addend: 0x0, symName: __ZNSt3__1miB7v160006IPKcPcEEDTmicldtfp_4baseEcldtfp0_4baseEERKNS_11__wrap_iterIT_EERKNS5_IT0_EE, symObjAddr: 0x3C44, symBinAddr: 0x100008548, symSize: 0x40 }
  - { offsetInCU: 0x608B, offset: 0x1478F, size: 0x8, addend: 0x0, symName: __ZNSt3__1miB7v160006IPKcS2_EEDTmicldtfp_4baseEcldtfp0_4baseEERKNS_11__wrap_iterIT_EERKNS4_IT0_EE, symObjAddr: 0x3C84, symBinAddr: 0x100008588, symSize: 0x40 }
  - { offsetInCU: 0x60D7, offset: 0x147DB, size: 0x8, addend: 0x0, symName: __ZNSt3__17getlineB7v160006IcNS_11char_traitsIcEENS_9allocatorIcEEEERNS_13basic_istreamIT_T0_EES9_RNS_12basic_stringIS6_S7_T1_EES6_, symObjAddr: 0x3EDC, symBinAddr: 0x1000087E0, symSize: 0x234 }
  - { offsetInCU: 0x6195, offset: 0x14899, size: 0x8, addend: 0x0, symName: __ZNSt3__118__constexpr_memcmpB7v160006IcEEiPKT_S3_m, symObjAddr: 0x43D0, symBinAddr: 0x100008CD4, symSize: 0x34 }
  - { offsetInCU: 0x6554, offset: 0x14C58, size: 0x8, addend: 0x0, symName: __Z7isalnumi, symObjAddr: 0x3B90, symBinAddr: 0x100008494, symSize: 0x28 }
  - { offsetInCU: 0x87E4, offset: 0x16EE8, size: 0x8, addend: 0x0, symName: __ZN9UserClassC2Ev, symObjAddr: 0x0, symBinAddr: 0x100005740, symSize: 0x68 }
  - { offsetInCU: 0x8813, offset: 0x16F17, size: 0x8, addend: 0x0, symName: __ZN9UserClassC1Ev, symObjAddr: 0x120, symBinAddr: 0x1000057A8, symSize: 0x2C }
  - { offsetInCU: 0x883D, offset: 0x16F41, size: 0x8, addend: 0x0, symName: __ZN9UserClassC2ENSt3__112basic_stringIcNS0_11char_traitsIcEENS0_9allocatorIcEEEES6_S6_10GenderType11MaritalType13EthnicityTypeS6_13EducationTypeS6_, symObjAddr: 0x14C, symBinAddr: 0x1000057D4, symSize: 0x1B8 }
  - { offsetInCU: 0x88ED, offset: 0x16FF1, size: 0x8, addend: 0x0, symName: __ZN9UserClassC1ENSt3__112basic_stringIcNS0_11char_traitsIcEENS0_9allocatorIcEEEES6_S6_10GenderType11MaritalType13EthnicityTypeS6_13EducationTypeS6_, symObjAddr: 0x304, symBinAddr: 0x10000598C, symSize: 0x84 }
  - { offsetInCU: 0x899A, offset: 0x1709E, size: 0x8, addend: 0x0, symName: __ZN9UserClass16enterUserDetailsEv, symObjAddr: 0x388, symBinAddr: 0x100005A10, symSize: 0x78 }
  - { offsetInCU: 0x89CF, offset: 0x170D3, size: 0x8, addend: 0x0, symName: __ZN9UserClass8setEmpIDERKNSt3__112basic_stringIcNS0_11char_traitsIcEENS0_9allocatorIcEEEE, symObjAddr: 0x400, symBinAddr: 0x100005A88, symSize: 0x330 }
  - { offsetInCU: 0x8A43, offset: 0x17147, size: 0x8, addend: 0x0, symName: __ZNKSt3__112basic_stringIcNS_11char_traitsIcEENS_9allocatorIcEEE5emptyB7v160006Ev, symObjAddr: 0x730, symBinAddr: 0x100005DB8, symSize: 0x30 }
  - { offsetInCU: 0x8A67, offset: 0x1716B, size: 0x8, addend: 0x0, symName: __ZNKSt3__19basic_iosIcNS_11char_traitsIcEEEntB7v160006Ev, symObjAddr: 0xAB4, symBinAddr: 0x1000060F4, symSize: 0x28 }
  - { offsetInCU: 0x8A8B, offset: 0x1718F, size: 0x8, addend: 0x0, symName: __ZN9UserClass18Get_EmpID_IfExistsERKNSt3__112basic_stringIcNS0_11char_traitsIcEENS0_9allocatorIcEEEE, symObjAddr: 0xB1C, symBinAddr: 0x10000611C, symSize: 0x474 }
  - { offsetInCU: 0x8B55, offset: 0x17259, size: 0x8, addend: 0x0, symName: __ZN9UserClass19Set_AddNew_EmployeeERKNSt3__112basic_stringIcNS0_11char_traitsIcEENS0_9allocatorIcEEEE, symObjAddr: 0x111C, symBinAddr: 0x10000671C, symSize: 0x498 }
  - { offsetInCU: 0x8BDD, offset: 0x172E1, size: 0x8, addend: 0x0, symName: __ZNSt3__112basic_stringIcNS_11char_traitsIcEENS_9allocatorIcEEE5clearB7v160006Ev, symObjAddr: 0x15B4, symBinAddr: 0x100006BB4, symSize: 0x88 }
  - { offsetInCU: 0x8C02, offset: 0x17306, size: 0x8, addend: 0x0, symName: __Z26getCurrentWorkingDirectoryv, symObjAddr: 0x1648, symBinAddr: 0x100006C3C, symSize: 0xB8 }
  - { offsetInCU: 0x8C3E, offset: 0x17342, size: 0x8, addend: 0x0, symName: __Z21trimSpecialCharactersRNSt3__112basic_stringIcNS_11char_traitsIcEENS_9allocatorIcEEEE, symObjAddr: 0x1700, symBinAddr: 0x100006CF4, symSize: 0x90 }
  - { offsetInCU: 0x8C86, offset: 0x1738A, size: 0x8, addend: 0x0, symName: __ZNSt3__112basic_stringIcNS_11char_traitsIcEENS_9allocatorIcEEE5eraseB7v160006ENS_11__wrap_iterIPKcEES9_, symObjAddr: 0x1790, symBinAddr: 0x100006D84, symSize: 0x98 }
  - { offsetInCU: 0x8CE8, offset: 0x173EC, size: 0x8, addend: 0x0, symName: __ZNSt3__112basic_stringIcNS_11char_traitsIcEENS_9allocatorIcEEE5beginB7v160006Ev, symObjAddr: 0x1924, symBinAddr: 0x100006F18, symSize: 0x4C }
  - { offsetInCU: 0x8D0C, offset: 0x17410, size: 0x8, addend: 0x0, symName: __ZNSt3__112basic_stringIcNS_11char_traitsIcEENS_9allocatorIcEEE3endB7v160006Ev, symObjAddr: 0x1970, symBinAddr: 0x100006F64, symSize: 0x54 }
  - { offsetInCU: 0x8D3A, offset: 0x1743E, size: 0x8, addend: 0x0, symName: __ZNSt3__111__wrap_iterIPKcEC1B7v160006IPcEERKNS0_IT_EEPNS_9enable_ifIXsr14is_convertibleIS6_S2_EE5valueEvE4typeE, symObjAddr: 0x19C4, symBinAddr: 0x100006FB8, symSize: 0x3C }
  - { offsetInCU: 0x8D82, offset: 0x17486, size: 0x8, addend: 0x0, symName: __Z18canOpenFileForReadRKNSt3__112basic_stringIcNS_11char_traitsIcEENS_9allocatorIcEEEE, symObjAddr: 0x1A00, symBinAddr: 0x100006FF4, symSize: 0xAC }
  - { offsetInCU: 0x8EDE, offset: 0x175E2, size: 0x8, addend: 0x0, symName: __ZNSt3__114basic_ifstreamIcNS_11char_traitsIcEEEC1ERKNS_12basic_stringIcS2_NS_9allocatorIcEEEEj, symObjAddr: 0x1AAC, symBinAddr: 0x1000070A0, symSize: 0x16C }
  - { offsetInCU: 0x8F27, offset: 0x1762B, size: 0x8, addend: 0x0, symName: __ZNKSt3__114basic_ifstreamIcNS_11char_traitsIcEEE7is_openEv, symObjAddr: 0x1C18, symBinAddr: 0x10000720C, symSize: 0x2C }
  - { offsetInCU: 0x8F52, offset: 0x17656, size: 0x8, addend: 0x0, symName: __ZNSt3__114basic_ifstreamIcNS_11char_traitsIcEEED1Ev, symObjAddr: 0x1C44, symBinAddr: 0x100007238, symSize: 0x40 }
  - { offsetInCU: 0x8F7E, offset: 0x17682, size: 0x8, addend: 0x0, symName: __ZNSt3__112basic_stringIcNS_11char_traitsIcEENS_9allocatorIcEEEC1B7v160006Ev, symObjAddr: 0x1C84, symBinAddr: 0x100007278, symSize: 0x2C }
  - { offsetInCU: 0x8FA6, offset: 0x176AA, size: 0x8, addend: 0x0, symName: __ZNKSt3__19basic_iosIcNS_11char_traitsIcEEEcvbB7v160006Ev, symObjAddr: 0x1D0C, symBinAddr: 0x100007300, symSize: 0x2C }
  - { offsetInCU: 0x901A, offset: 0x1771E, size: 0x8, addend: 0x0, symName: __ZNSt3__119basic_istringstreamIcNS_11char_traitsIcEENS_9allocatorIcEEEC1B7v160006ERKNS_12basic_stringIcS2_S4_EEj, symObjAddr: 0x1D38, symBinAddr: 0x10000732C, symSize: 0xFC }
  - { offsetInCU: 0x9060, offset: 0x17764, size: 0x8, addend: 0x0, symName: __ZNSt3__114basic_ifstreamIcNS_11char_traitsIcEEE5closeEv, symObjAddr: 0x1F7C, symBinAddr: 0x100007570, symSize: 0x58 }
  - { offsetInCU: 0x908B, offset: 0x1778F, size: 0x8, addend: 0x0, symName: __ZNSt3__119basic_istringstreamIcNS_11char_traitsIcEENS_9allocatorIcEEED1Ev, symObjAddr: 0x1FD4, symBinAddr: 0x1000075C8, symSize: 0x40 }
  - { offsetInCU: 0x927B, offset: 0x1797F, size: 0x8, addend: 0x0, symName: __ZNSt3__114basic_ofstreamIcNS_11char_traitsIcEEEC1ERKNS_12basic_stringIcS2_NS_9allocatorIcEEEEj, symObjAddr: 0x20C4, symBinAddr: 0x100007608, symSize: 0x16C }
  - { offsetInCU: 0x92C4, offset: 0x179C8, size: 0x8, addend: 0x0, symName: __ZNKSt3__114basic_ofstreamIcNS_11char_traitsIcEEE7is_openEv, symObjAddr: 0x2230, symBinAddr: 0x100007774, symSize: 0x2C }
  - { offsetInCU: 0x92EA, offset: 0x179EE, size: 0x8, addend: 0x0, symName: __ZNSt3__114basic_ofstreamIcNS_11char_traitsIcEEE5closeEv, symObjAddr: 0x22A8, symBinAddr: 0x1000077EC, symSize: 0x58 }
  - { offsetInCU: 0x9315, offset: 0x17A19, size: 0x8, addend: 0x0, symName: __ZNSt3__114basic_ofstreamIcNS_11char_traitsIcEEED1Ev, symObjAddr: 0x232C, symBinAddr: 0x100007844, symSize: 0x40 }
  - { offsetInCU: 0x9341, offset: 0x17A45, size: 0x8, addend: 0x0, symName: __ZNK9UserClass8getEmpIDEv, symObjAddr: 0x236C, symBinAddr: 0x100007884, symSize: 0x3C }
  - { offsetInCU: 0x9368, offset: 0x17A6C, size: 0x8, addend: 0x0, symName: __ZNK9UserClass5printEv, symObjAddr: 0x23A8, symBinAddr: 0x1000078C0, symSize: 0x30 }
  - { offsetInCU: 0x938F, offset: 0x17A93, size: 0x8, addend: 0x0, symName: __ZNK9UserClass10printEmpIDEv, symObjAddr: 0x23D8, symBinAddr: 0x1000078F0, symSize: 0x50 }
  - { offsetInCU: 0x93B6, offset: 0x17ABA, size: 0x8, addend: 0x0, symName: __ZNSt3__111__wrap_iterIPKcEC2B7v160006IPcEERKNS0_IT_EEPNS_9enable_ifIXsr14is_convertibleIS6_S2_EE5valueEvE4typeE, symObjAddr: 0x2430, symBinAddr: 0x100007940, symSize: 0x40 }
  - { offsetInCU: 0x93FF, offset: 0x17B03, size: 0x8, addend: 0x0, symName: __ZNKSt3__111__wrap_iterIPcE4baseB7v160006Ev, symObjAddr: 0x2470, symBinAddr: 0x100007980, symSize: 0x18 }
  - { offsetInCU: 0x9423, offset: 0x17B27, size: 0x8, addend: 0x0, symName: __ZNSt3__114basic_ifstreamIcNS_11char_traitsIcEEED2Ev, symObjAddr: 0x2488, symBinAddr: 0x100007998, symSize: 0x64 }
  - { offsetInCU: 0x945B, offset: 0x17B5F, size: 0x8, addend: 0x0, symName: __ZTv0_n24_NSt3__114basic_ifstreamIcNS_11char_traitsIcEEED1Ev, symObjAddr: 0x24EC, symBinAddr: 0x1000079FC, symSize: 0x28 }
  - { offsetInCU: 0x9472, offset: 0x17B76, size: 0x8, addend: 0x0, symName: __ZNSt3__119basic_istringstreamIcNS_11char_traitsIcEENS_9allocatorIcEEED2Ev, symObjAddr: 0x2514, symBinAddr: 0x100007A24, symSize: 0x64 }
  - { offsetInCU: 0x94AA, offset: 0x17BAE, size: 0x8, addend: 0x0, symName: __ZTv0_n24_NSt3__119basic_istringstreamIcNS_11char_traitsIcEENS_9allocatorIcEEED1Ev, symObjAddr: 0x2578, symBinAddr: 0x100007A88, symSize: 0x28 }
  - { offsetInCU: 0x94C6, offset: 0x17BCA, size: 0x8, addend: 0x0, symName: __ZNSt3__115basic_stringbufIcNS_11char_traitsIcEENS_9allocatorIcEEED1Ev, symObjAddr: 0x25A0, symBinAddr: 0x100007AB0, symSize: 0x2C }
  - { offsetInCU: 0x94F2, offset: 0x17BF6, size: 0x8, addend: 0x0, symName: __ZNSt3__115basic_stringbufIcNS_11char_traitsIcEENS_9allocatorIcEEED2Ev, symObjAddr: 0x25CC, symBinAddr: 0x100007ADC, symSize: 0x48 }
  - { offsetInCU: 0x951E, offset: 0x17C22, size: 0x8, addend: 0x0, symName: __ZNSt3__114basic_ofstreamIcNS_11char_traitsIcEEED2Ev, symObjAddr: 0x2678, symBinAddr: 0x100007B24, symSize: 0x64 }
  - { offsetInCU: 0x9556, offset: 0x17C5A, size: 0x8, addend: 0x0, symName: __ZTv0_n24_NSt3__114basic_ofstreamIcNS_11char_traitsIcEEED1Ev, symObjAddr: 0x26DC, symBinAddr: 0x100007B88, symSize: 0x28 }
  - { offsetInCU: 0x956D, offset: 0x17C71, size: 0x8, addend: 0x0, symName: __ZNSt3__112basic_stringIcNS_11char_traitsIcEENS_9allocatorIcEEEC2B7v160006Ev, symObjAddr: 0x2704, symBinAddr: 0x100007BB0, symSize: 0x54 }
  - { offsetInCU: 0x959A, offset: 0x17C9E, size: 0x8, addend: 0x0, symName: __ZNSt3__112basic_stringIcNS_11char_traitsIcEENS_9allocatorIcEEE14__default_initB7v160006Ev, symObjAddr: 0x27A4, symBinAddr: 0x100007C04, symSize: 0x40 }
  - { offsetInCU: 0x95BE, offset: 0x17CC2, size: 0x8, addend: 0x0, symName: __ZNSt3__117__compressed_pairINS_12basic_stringIcNS_11char_traitsIcEENS_9allocatorIcEEE5__repES5_E5firstB7v160006Ev, symObjAddr: 0x28A0, symBinAddr: 0x100007C44, symSize: 0x24 }
  - { offsetInCU: 0x95E2, offset: 0x17CE6, size: 0x8, addend: 0x0, symName: __ZNSt3__122__compressed_pair_elemINS_12basic_stringIcNS_11char_traitsIcEENS_9allocatorIcEEE5__repELi0ELb0EE5__getB7v160006Ev, symObjAddr: 0x28C4, symBinAddr: 0x100007C68, symSize: 0x14 }
  - { offsetInCU: 0x9606, offset: 0x17D0A, size: 0x8, addend: 0x0, symName: __ZNSt3__111char_traitsIcE6assignERcRKc, symObjAddr: 0x2920, symBinAddr: 0x100007C8C, symSize: 0x24 }
  - { offsetInCU: 0x9637, offset: 0x17D3B, size: 0x8, addend: 0x0, symName: __ZNSt3__112basic_stringIcNS_11char_traitsIcEENS_9allocatorIcEEE18__get_long_pointerB7v160006Ev, symObjAddr: 0x2944, symBinAddr: 0x100007CB0, symSize: 0x28 }
  - { offsetInCU: 0x965B, offset: 0x17D5F, size: 0x8, addend: 0x0, symName: __ZNSt3__112basic_stringIcNS_11char_traitsIcEENS_9allocatorIcEEE15__set_long_sizeB7v160006Em, symObjAddr: 0x296C, symBinAddr: 0x100007CD8, symSize: 0x38 }
  - { offsetInCU: 0x968E, offset: 0x17D92, size: 0x8, addend: 0x0, symName: __ZNSt3__112basic_stringIcNS_11char_traitsIcEENS_9allocatorIcEEE19__get_short_pointerB7v160006Ev, symObjAddr: 0x29A4, symBinAddr: 0x100007D10, symSize: 0x28 }
  - { offsetInCU: 0x96B2, offset: 0x17DB6, size: 0x8, addend: 0x0, symName: __ZNSt3__112basic_stringIcNS_11char_traitsIcEENS_9allocatorIcEEE16__set_short_sizeB7v160006Em, symObjAddr: 0x29CC, symBinAddr: 0x100007D38, symSize: 0x78 }
  - { offsetInCU: 0x96E5, offset: 0x17DE9, size: 0x8, addend: 0x0, symName: __ZNSt3__114pointer_traitsIPcE10pointer_toB7v160006ERc, symObjAddr: 0x2A7C, symBinAddr: 0x100007DB0, symSize: 0x14 }
  - { offsetInCU: 0x9708, offset: 0x17E0C, size: 0x8, addend: 0x0, symName: __ZNKSt3__112basic_stringIcNS_11char_traitsIcEENS_9allocatorIcEEE4sizeB7v160006Ev, symObjAddr: 0x2A90, symBinAddr: 0x100007DC4, symSize: 0x54 }
  - { offsetInCU: 0x972C, offset: 0x17E30, size: 0x8, addend: 0x0, symName: __ZNKSt3__112basic_stringIcNS_11char_traitsIcEENS_9allocatorIcEEE15__get_long_sizeB7v160006Ev, symObjAddr: 0x2AE4, symBinAddr: 0x100007E18, symSize: 0x28 }
  - { offsetInCU: 0x9750, offset: 0x17E54, size: 0x8, addend: 0x0, symName: __ZNKSt3__112basic_stringIcNS_11char_traitsIcEENS_9allocatorIcEEE16__get_short_sizeB7v160006Ev, symObjAddr: 0x2B0C, symBinAddr: 0x100007E40, symSize: 0x34 }
  - { offsetInCU: 0x97B5, offset: 0x17EB9, size: 0x8, addend: 0x0, symName: __ZNKSt3__113basic_istreamIcNS_11char_traitsIcEEE6sentrycvbB7v160006Ev, symObjAddr: 0x3520, symBinAddr: 0x100007E74, symSize: 0x1C }
  - { offsetInCU: 0x97D9, offset: 0x17EDD, size: 0x8, addend: 0x0, symName: __ZNKSt3__112basic_stringIcNS_11char_traitsIcEENS_9allocatorIcEEE8max_sizeB7v160006Ev, symObjAddr: 0x353C, symBinAddr: 0x100007E90, symSize: 0xAC }
  - { offsetInCU: 0x982A, offset: 0x17F2E, size: 0x8, addend: 0x0, symName: __ZNSt3__115basic_streambufIcNS_11char_traitsIcEEE5sgetcB7v160006Ev, symObjAddr: 0x35E8, symBinAddr: 0x100007F3C, symSize: 0x70 }
  - { offsetInCU: 0x984E, offset: 0x17F52, size: 0x8, addend: 0x0, symName: __ZNSt3__111char_traitsIcE12to_char_typeEi, symObjAddr: 0x3658, symBinAddr: 0x100007FAC, symSize: 0x18 }
  - { offsetInCU: 0x9871, offset: 0x17F75, size: 0x8, addend: 0x0, symName: __ZNKSt3__15ctypeIcE2isB7v160006Ejc, symObjAddr: 0x3670, symBinAddr: 0x100007FC4, symSize: 0x7C }
  - { offsetInCU: 0x98B3, offset: 0x17FB7, size: 0x8, addend: 0x0, symName: __ZNSt3__115basic_streambufIcNS_11char_traitsIcEEE6sbumpcB7v160006Ev, symObjAddr: 0x36EC, symBinAddr: 0x100008040, symSize: 0x78 }
  - { offsetInCU: 0x98D7, offset: 0x17FDB, size: 0x8, addend: 0x0, symName: __ZNSt3__18ios_base18__setstate_nothrowB7v160006Ej, symObjAddr: 0x3764, symBinAddr: 0x1000080B8, symSize: 0x64 }
  - { offsetInCU: 0x990A, offset: 0x1800E, size: 0x8, addend: 0x0, symName: __ZNKSt3__19basic_iosIcNS_11char_traitsIcEEE10exceptionsB7v160006Ev, symObjAddr: 0x37C8, symBinAddr: 0x10000811C, symSize: 0x24 }
  - { offsetInCU: 0x9938, offset: 0x1803C, size: 0x8, addend: 0x0, symName: __ZNSt3__116allocator_traitsINS_9allocatorIcEEE8max_sizeB7v160006IS2_vEEmRKS2_, symObjAddr: 0x37EC, symBinAddr: 0x100008140, symSize: 0x24 }
  - { offsetInCU: 0x9966, offset: 0x1806A, size: 0x8, addend: 0x0, symName: __ZNKSt3__112basic_stringIcNS_11char_traitsIcEENS_9allocatorIcEEE7__allocB7v160006Ev, symObjAddr: 0x3810, symBinAddr: 0x100008164, symSize: 0x24 }
  - { offsetInCU: 0x998A, offset: 0x1808E, size: 0x8, addend: 0x0, symName: __ZNSt3__114numeric_limitsImE3maxB7v160006Ev, symObjAddr: 0x3834, symBinAddr: 0x100008188, symSize: 0x14 }
  - { offsetInCU: 0x999E, offset: 0x180A2, size: 0x8, addend: 0x0, symName: __ZNKSt3__19allocatorIcE8max_sizeB7v160006Ev, symObjAddr: 0x3848, symBinAddr: 0x10000819C, symSize: 0x14 }
  - { offsetInCU: 0x99C2, offset: 0x180C6, size: 0x8, addend: 0x0, symName: __ZNKSt3__117__compressed_pairINS_12basic_stringIcNS_11char_traitsIcEENS_9allocatorIcEEE5__repES5_E6secondB7v160006Ev, symObjAddr: 0x385C, symBinAddr: 0x1000081B0, symSize: 0x24 }
  - { offsetInCU: 0x99E6, offset: 0x180EA, size: 0x8, addend: 0x0, symName: __ZNKSt3__122__compressed_pair_elemINS_9allocatorIcEELi1ELb1EE5__getB7v160006Ev, symObjAddr: 0x3880, symBinAddr: 0x1000081D4, symSize: 0x14 }
  - { offsetInCU: 0x9A0A, offset: 0x1810E, size: 0x8, addend: 0x0, symName: __ZNSt3__123__libcpp_numeric_limitsImLb1EE3maxB7v160006Ev, symObjAddr: 0x3894, symBinAddr: 0x1000081E8, symSize: 0x8 }
  - { offsetInCU: 0x9A1E, offset: 0x18122, size: 0x8, addend: 0x0, symName: __ZNSt3__111char_traitsIcE11to_int_typeEc, symObjAddr: 0x389C, symBinAddr: 0x1000081F0, symSize: 0x14 }
  - { offsetInCU: 0x9A40, offset: 0x18144, size: 0x8, addend: 0x0, symName: __Z7isasciii, symObjAddr: 0x38B0, symBinAddr: 0x100008204, symSize: 0x24 }
  - { offsetInCU: 0x9A6D, offset: 0x18171, size: 0x8, addend: 0x0, symName: __ZNKSt3__18ios_base10exceptionsB7v160006Ev, symObjAddr: 0x38D4, symBinAddr: 0x100008228, symSize: 0x18 }
  - { offsetInCU: 0x9A93, offset: 0x18197, size: 0x8, addend: 0x0, symName: __ZNSt3__112basic_stringIcNS_11char_traitsIcEENS_9allocatorIcEEE15__make_iteratorB7v160006EPc, symObjAddr: 0x393C, symBinAddr: 0x100008240, symSize: 0x34 }
  - { offsetInCU: 0x9AC6, offset: 0x181CA, size: 0x8, addend: 0x0, symName: __ZNSt3__112basic_stringIcNS_11char_traitsIcEENS_9allocatorIcEEE13__get_pointerB7v160006Ev, symObjAddr: 0x3970, symBinAddr: 0x100008274, symSize: 0x54 }
  - { offsetInCU: 0x9AEA, offset: 0x181EE, size: 0x8, addend: 0x0, symName: __ZNSt3__111__wrap_iterIPcEC1B7v160006EPKvS1_, symObjAddr: 0x39C4, symBinAddr: 0x1000082C8, symSize: 0x3C }
  - { offsetInCU: 0x9B2E, offset: 0x18232, size: 0x8, addend: 0x0, symName: __ZNSt3__111__wrap_iterIPcEC2B7v160006EPKvS1_, symObjAddr: 0x3A00, symBinAddr: 0x100008304, symSize: 0x24 }
  - { offsetInCU: 0x9B72, offset: 0x18276, size: 0x8, addend: 0x0, symName: __ZNSt3__111__wrap_iterIPcEppB7v160006Ev, symObjAddr: 0x3ADC, symBinAddr: 0x1000083E0, symSize: 0x20 }
  - { offsetInCU: 0x9BA0, offset: 0x182A4, size: 0x8, addend: 0x0, symName: '__ZZ21trimSpecialCharactersRNSt3__112basic_stringIcNS_11char_traitsIcEENS_9allocatorIcEEEEENK3$_0clEh', symObjAddr: 0x3AFC, symBinAddr: 0x100008400, symSize: 0x34 }
  - { offsetInCU: 0x9BD6, offset: 0x182DA, size: 0x8, addend: 0x0, symName: __ZNKSt3__111__wrap_iterIPcEdeB7v160006Ev, symObjAddr: 0x3B30, symBinAddr: 0x100008434, symSize: 0x18 }
  - { offsetInCU: 0x9BF9, offset: 0x182FD, size: 0x8, addend: 0x0, symName: __Z8__istypeim, symObjAddr: 0x3BB8, symBinAddr: 0x1000084BC, symSize: 0x8C }
  - { offsetInCU: 0x9C34, offset: 0x18338, size: 0x8, addend: 0x0, symName: __ZNKSt3__111__wrap_iterIPcEplB7v160006El, symObjAddr: 0x3CC4, symBinAddr: 0x1000085C8, symSize: 0x3C }
  - { offsetInCU: 0x9C74, offset: 0x18378, size: 0x8, addend: 0x0, symName: __ZNKSt3__111__wrap_iterIPKcE4baseB7v160006Ev, symObjAddr: 0x3D00, symBinAddr: 0x100008604, symSize: 0x18 }
  - { offsetInCU: 0x9C98, offset: 0x1839C, size: 0x8, addend: 0x0, symName: __ZNSt3__111__wrap_iterIPcEpLB7v160006El, symObjAddr: 0x3D18, symBinAddr: 0x10000861C, symSize: 0x28 }
  - { offsetInCU: 0x9CCA, offset: 0x183CE, size: 0x8, addend: 0x0, symName: __ZNSt3__19basic_iosIcNS_11char_traitsIcEEEC2B7v160006Ev, symObjAddr: 0x3D40, symBinAddr: 0x100008644, symSize: 0x44 }
  - { offsetInCU: 0x9CF2, offset: 0x183F6, size: 0x8, addend: 0x0, symName: __ZNSt3__113basic_istreamIcNS_11char_traitsIcEEEC2B7v160006EPNS_15basic_streambufIcS2_EE, symObjAddr: 0x3D84, symBinAddr: 0x100008688, symSize: 0x64 }
  - { offsetInCU: 0x9D34, offset: 0x18438, size: 0x8, addend: 0x0, symName: __ZNSt3__113basic_filebufIcNS_11char_traitsIcEEE4openERKNS_12basic_stringIcS2_NS_9allocatorIcEEEEj, symObjAddr: 0x3DE8, symBinAddr: 0x1000086EC, symSize: 0x44 }
  - { offsetInCU: 0x9D76, offset: 0x1847A, size: 0x8, addend: 0x0, symName: __ZNSt3__18ios_baseC2B7v160006Ev, symObjAddr: 0x3E2C, symBinAddr: 0x100008730, symSize: 0x24 }
  - { offsetInCU: 0x9D9E, offset: 0x184A2, size: 0x8, addend: 0x0, symName: __ZNSt3__19basic_iosIcNS_11char_traitsIcEEE4initB7v160006EPNS_15basic_streambufIcS2_EE, symObjAddr: 0x3E50, symBinAddr: 0x100008754, symSize: 0x44 }
  - { offsetInCU: 0x9DD3, offset: 0x184D7, size: 0x8, addend: 0x0, symName: __ZNKSt3__112basic_stringIcNS_11char_traitsIcEENS_9allocatorIcEEE5c_strB7v160006Ev, symObjAddr: 0x3E94, symBinAddr: 0x100008798, symSize: 0x24 }
  - { offsetInCU: 0x9DF7, offset: 0x184FB, size: 0x8, addend: 0x0, symName: __ZNKSt3__113basic_filebufIcNS_11char_traitsIcEEE7is_openEv, symObjAddr: 0x3EB8, symBinAddr: 0x1000087BC, symSize: 0x24 }
  - { offsetInCU: 0x9E1D, offset: 0x18521, size: 0x8, addend: 0x0, symName: __ZNSt3__111char_traitsIcE2eqEcc, symObjAddr: 0x4110, symBinAddr: 0x100008A14, symSize: 0x28 }
  - { offsetInCU: 0x9E4E, offset: 0x18552, size: 0x8, addend: 0x0, symName: __ZNSt3__115basic_stringbufIcNS_11char_traitsIcEENS_9allocatorIcEEEC1B7v160006ERKNS_12basic_stringIcS2_S4_EEj, symObjAddr: 0x4138, symBinAddr: 0x100008A3C, symSize: 0x3C }
  - { offsetInCU: 0x9E92, offset: 0x18596, size: 0x8, addend: 0x0, symName: __ZNSt3__115basic_stringbufIcNS_11char_traitsIcEENS_9allocatorIcEEEC2B7v160006ERKNS_12basic_stringIcS2_S4_EEj, symObjAddr: 0x4174, symBinAddr: 0x100008A78, symSize: 0xB4 }
  - { offsetInCU: 0x9ED6, offset: 0x185DA, size: 0x8, addend: 0x0, symName: __ZNKSt3__112basic_stringIcNS_11char_traitsIcEENS_9allocatorIcEEE13get_allocatorB7v160006Ev, symObjAddr: 0x4228, symBinAddr: 0x100008B2C, symSize: 0x24 }
  - { offsetInCU: 0x9EFA, offset: 0x185FE, size: 0x8, addend: 0x0, symName: __ZNSt3__112basic_stringIcNS_11char_traitsIcEENS_9allocatorIcEEEC1B7v160006ERKS4_, symObjAddr: 0x424C, symBinAddr: 0x100008B50, symSize: 0x34 }
  - { offsetInCU: 0x9F31, offset: 0x18635, size: 0x8, addend: 0x0, symName: __ZNSt3__112basic_stringIcNS_11char_traitsIcEENS_9allocatorIcEEEC2B7v160006ERKS4_, symObjAddr: 0x4280, symBinAddr: 0x100008B84, symSize: 0x50 }
  - { offsetInCU: 0x9F68, offset: 0x1866C, size: 0x8, addend: 0x0, symName: __ZNSt3__117__compressed_pairINS_12basic_stringIcNS_11char_traitsIcEENS_9allocatorIcEEE5__repES5_EC1B7v160006INS_18__default_init_tagERKS5_EEOT_OT0_, symObjAddr: 0x42D0, symBinAddr: 0x100008BD4, symSize: 0x3C }
  - { offsetInCU: 0x9FBE, offset: 0x186C2, size: 0x8, addend: 0x0, symName: __ZNSt3__117__compressed_pairINS_12basic_stringIcNS_11char_traitsIcEENS_9allocatorIcEEE5__repES5_EC2B7v160006INS_18__default_init_tagERKS5_EEOT_OT0_, symObjAddr: 0x430C, symBinAddr: 0x100008C10, symSize: 0x40 }
  - { offsetInCU: 0xA014, offset: 0x18718, size: 0x8, addend: 0x0, symName: __ZNSt3__122__compressed_pair_elemINS_9allocatorIcEELi1ELb1EEC2B7v160006IRKS2_vEEOT_, symObjAddr: 0x434C, symBinAddr: 0x100008C50, symSize: 0x18 }
  - { offsetInCU: 0xA055, offset: 0x18759, size: 0x8, addend: 0x0, symName: __ZNSt3__111char_traitsIcE7compareEPKcS3_m, symObjAddr: 0x4364, symBinAddr: 0x100008C68, symSize: 0x6C }
  - { offsetInCU: 0xA093, offset: 0x18797, size: 0x8, addend: 0x0, symName: __ZNSt3__113basic_ostreamIcNS_11char_traitsIcEEEC2B7v160006EPNS_15basic_streambufIcS2_EE, symObjAddr: 0x4404, symBinAddr: 0x100008D08, symSize: 0x60 }
  - { offsetInCU: 0x4227, offset: 0x1CAAE, size: 0x8, addend: 0x0, symName: __ZNSt3__12wsB7v160006IcNS_11char_traitsIcEEEERNS_13basic_istreamIT_T0_EES7_, symObjAddr: 0x30C4, symBinAddr: 0x10000B8DC, symSize: 0x238 }
  - { offsetInCU: 0x66BB, offset: 0x1EF42, size: 0x8, addend: 0x0, symName: __ZN11PersonClassC2Ev, symObjAddr: 0x0, symBinAddr: 0x100008D68, symSize: 0x1EC }
  - { offsetInCU: 0x66EA, offset: 0x1EF71, size: 0x8, addend: 0x0, symName: __ZN11PersonClassC1Ev, symObjAddr: 0x220, symBinAddr: 0x100008F54, symSize: 0x2C }
  - { offsetInCU: 0x6714, offset: 0x1EF9B, size: 0x8, addend: 0x0, symName: __ZN11PersonClassC2ENSt3__112basic_stringIcNS0_11char_traitsIcEENS0_9allocatorIcEEEES6_S6_10GenderType11MaritalType13EthnicityTypeS6_13EducationType, symObjAddr: 0x24C, symBinAddr: 0x100008F80, symSize: 0x208 }
  - { offsetInCU: 0x67B2, offset: 0x1F039, size: 0x8, addend: 0x0, symName: __ZN11PersonClassC1ENSt3__112basic_stringIcNS0_11char_traitsIcEENS0_9allocatorIcEEEES6_S6_10GenderType11MaritalType13EthnicityTypeS6_13EducationType, symObjAddr: 0x454, symBinAddr: 0x100009188, symSize: 0x78 }
  - { offsetInCU: 0x6850, offset: 0x1F0D7, size: 0x8, addend: 0x0, symName: __ZN11PersonClass18enterPersonDetailsEv, symObjAddr: 0x4CC, symBinAddr: 0x100009200, symSize: 0x60 }
  - { offsetInCU: 0x6876, offset: 0x1F0FD, size: 0x8, addend: 0x0, symName: __ZN11PersonClass12setFirstNameEv, symObjAddr: 0x52C, symBinAddr: 0x100009260, symSize: 0x2D8 }
  - { offsetInCU: 0x68BF, offset: 0x1F146, size: 0x8, addend: 0x0, symName: __ZN11PersonClass11setLastNameEv, symObjAddr: 0x804, symBinAddr: 0x100009538, symSize: 0x2D8 }
  - { offsetInCU: 0x6908, offset: 0x1F18F, size: 0x8, addend: 0x0, symName: __ZN11PersonClass6setAgeEv, symObjAddr: 0xADC, symBinAddr: 0x100009810, symSize: 0x624 }
  - { offsetInCU: 0x6995, offset: 0x1F21C, size: 0x8, addend: 0x0, symName: __ZN11PersonClass9setGenderEv, symObjAddr: 0x1100, symBinAddr: 0x100009E34, symSize: 0x454 }
  - { offsetInCU: 0x69E7, offset: 0x1F26E, size: 0x8, addend: 0x0, symName: __ZN11PersonClass16setMaritalStatusEv, symObjAddr: 0x156C, symBinAddr: 0x10000A2A0, symSize: 0x478 }
  - { offsetInCU: 0x6A39, offset: 0x1F2C0, size: 0x8, addend: 0x0, symName: __ZN11PersonClass12setEthnicityEv, symObjAddr: 0x1A00, symBinAddr: 0x10000A734, symSize: 0x478 }
  - { offsetInCU: 0x6A8B, offset: 0x1F312, size: 0x8, addend: 0x0, symName: __ZN11PersonClass13setOccupationEv, symObjAddr: 0x1E94, symBinAddr: 0x10000ABC8, symSize: 0x274 }
  - { offsetInCU: 0x6AD7, offset: 0x1F35E, size: 0x8, addend: 0x0, symName: __ZN11PersonClass12setEducationEv, symObjAddr: 0x2108, symBinAddr: 0x10000AE3C, symSize: 0x508 }
  - { offsetInCU: 0x6B29, offset: 0x1F3B0, size: 0x8, addend: 0x0, symName: __ZN11PersonClass12allocPersonsEv, symObjAddr: 0x263C, symBinAddr: 0x10000B370, symSize: 0x410 }
  - { offsetInCU: 0x6BDE, offset: 0x1F465, size: 0x8, addend: 0x0, symName: __ZN11PersonClass14deallocPersonsEPPS_i, symObjAddr: 0x2BB8, symBinAddr: 0x10000B780, symSize: 0xC8 }
  - { offsetInCU: 0x6C82, offset: 0x1F509, size: 0x8, addend: 0x0, symName: __ZNKSt3__15arrayINS_12basic_stringIcNS_11char_traitsIcEENS_9allocatorIcEEEELm18EE4sizeB7v160006Ev, symObjAddr: 0x2FBC, symBinAddr: 0x10000B848, symSize: 0x14 }
  - { offsetInCU: 0x6CA6, offset: 0x1F52D, size: 0x8, addend: 0x0, symName: __ZNSt3__15arrayINS_12basic_stringIcNS_11char_traitsIcEENS_9allocatorIcEEEELm18EEixB7v160006Em, symObjAddr: 0x301C, symBinAddr: 0x10000B85C, symSize: 0x28 }
  - { offsetInCU: 0x6CD8, offset: 0x1F55F, size: 0x8, addend: 0x0, symName: __ZNSt3__15arrayINS_12basic_stringIcNS_11char_traitsIcEENS_9allocatorIcEEEELm18EED1Ev, symObjAddr: 0x306C, symBinAddr: 0x10000B884, symSize: 0x2C }
  - { offsetInCU: 0x6D76, offset: 0x1F5FD, size: 0x8, addend: 0x0, symName: __ZNSt3__113basic_istreamIcNS_11char_traitsIcEEErsB7v160006EPFRS3_S4_E, symObjAddr: 0x3098, symBinAddr: 0x10000B8B0, symSize: 0x2C }
  - { offsetInCU: 0x6DA8, offset: 0x1F62F, size: 0x8, addend: 0x0, symName: __ZNK11PersonClass18getGenderType_EnumEv, symObjAddr: 0x3358, symBinAddr: 0x10000BB14, symSize: 0x18 }
  - { offsetInCU: 0x6DD0, offset: 0x1F657, size: 0x8, addend: 0x0, symName: __ZNK11PersonClass19getMaritalType_EnumEv, symObjAddr: 0x3370, symBinAddr: 0x10000BB2C, symSize: 0x18 }
  - { offsetInCU: 0x6DF8, offset: 0x1F67F, size: 0x8, addend: 0x0, symName: __ZNK11PersonClass21getEducationType_EnumEv, symObjAddr: 0x3388, symBinAddr: 0x10000BB44, symSize: 0x18 }
  - { offsetInCU: 0x6E20, offset: 0x1F6A7, size: 0x8, addend: 0x0, symName: __ZNK11PersonClass21getEthnicityType_EnumEv, symObjAddr: 0x33A0, symBinAddr: 0x10000BB5C, symSize: 0x18 }
  - { offsetInCU: 0x6E48, offset: 0x1F6CF, size: 0x8, addend: 0x0, symName: __ZNK11PersonClass12getFirstNameEv, symObjAddr: 0x33B8, symBinAddr: 0x10000BB74, symSize: 0x3C }
  - { offsetInCU: 0x6E70, offset: 0x1F6F7, size: 0x8, addend: 0x0, symName: __ZNK11PersonClass11getLastNameEv, symObjAddr: 0x33F4, symBinAddr: 0x10000BBB0, symSize: 0x3C }
  - { offsetInCU: 0x6E98, offset: 0x1F71F, size: 0x8, addend: 0x0, symName: __ZNK11PersonClass11getAgeRangeEv, symObjAddr: 0x3430, symBinAddr: 0x10000BBEC, symSize: 0x3C }
  - { offsetInCU: 0x6EC0, offset: 0x1F747, size: 0x8, addend: 0x0, symName: __ZNK11PersonClass9getGenderEv, symObjAddr: 0x346C, symBinAddr: 0x10000BC28, symSize: 0x3C }
  - { offsetInCU: 0x6EE8, offset: 0x1F76F, size: 0x8, addend: 0x0, symName: __ZNK11PersonClass16getMaritalStatusEv, symObjAddr: 0x34A8, symBinAddr: 0x10000BC64, symSize: 0x3C }
  - { offsetInCU: 0x6F10, offset: 0x1F797, size: 0x8, addend: 0x0, symName: __ZNK11PersonClass12getEthnicityEv, symObjAddr: 0x34E4, symBinAddr: 0x10000BCA0, symSize: 0x3C }
  - { offsetInCU: 0x6F38, offset: 0x1F7BF, size: 0x8, addend: 0x0, symName: __ZNK11PersonClass13getOccupationEv, symObjAddr: 0x3520, symBinAddr: 0x10000BCDC, symSize: 0x3C }
  - { offsetInCU: 0x6F60, offset: 0x1F7E7, size: 0x8, addend: 0x0, symName: __ZNK11PersonClass12getEducationEv, symObjAddr: 0x355C, symBinAddr: 0x10000BD18, symSize: 0x3C }
  - { offsetInCU: 0x6F88, offset: 0x1F80F, size: 0x8, addend: 0x0, symName: __ZNK11PersonClass17getMaxPersonCountEv, symObjAddr: 0x3598, symBinAddr: 0x10000BD54, symSize: 0x18 }
  - { offsetInCU: 0x6FB0, offset: 0x1F837, size: 0x8, addend: 0x0, symName: __ZNK11PersonClass18genderTypeToStringEv, symObjAddr: 0x35B0, symBinAddr: 0x10000BD6C, symSize: 0xE0 }
  - { offsetInCU: 0x6FD8, offset: 0x1F85F, size: 0x8, addend: 0x0, symName: __ZNK11PersonClass19maritalTypeToStringEv, symObjAddr: 0x36A8, symBinAddr: 0x10000BE64, symSize: 0xF4 }
  - { offsetInCU: 0x7000, offset: 0x1F887, size: 0x8, addend: 0x0, symName: __ZNK11PersonClass21educationTypeToStringEv, symObjAddr: 0x37B8, symBinAddr: 0x10000BF74, symSize: 0x158 }
  - { offsetInCU: 0x7028, offset: 0x1F8AF, size: 0x8, addend: 0x0, symName: __ZNK11PersonClass21ethnicityTypeToStringEv, symObjAddr: 0x393C, symBinAddr: 0x10000C0F8, symSize: 0x108 }
  - { offsetInCU: 0x7050, offset: 0x1F8D7, size: 0x8, addend: 0x0, symName: __ZNK11PersonClass5printEv, symObjAddr: 0x3A60, symBinAddr: 0x10000C21C, symSize: 0x290 }
  - { offsetInCU: 0x7078, offset: 0x1F8FF, size: 0x8, addend: 0x0, symName: __ZNK11PersonClass9printNameEv, symObjAddr: 0x3CF0, symBinAddr: 0x10000C4AC, symSize: 0x68 }
  - { offsetInCU: 0x70A0, offset: 0x1F927, size: 0x8, addend: 0x0, symName: __ZNK11PersonClass11printGenderEv, symObjAddr: 0x3D58, symBinAddr: 0x10000C514, symSize: 0xA0 }
  - { offsetInCU: 0x70C8, offset: 0x1F94F, size: 0x8, addend: 0x0, symName: __ZNK11PersonClass8printAgeEv, symObjAddr: 0x3DF8, symBinAddr: 0x10000C5B4, symSize: 0x50 }
  - { offsetInCU: 0x70F0, offset: 0x1F977, size: 0x8, addend: 0x0, symName: __ZNK11PersonClass18printMaritalStatusEv, symObjAddr: 0x3E48, symBinAddr: 0x10000C604, symSize: 0xA0 }
  - { offsetInCU: 0x7118, offset: 0x1F99F, size: 0x8, addend: 0x0, symName: __ZNK11PersonClass14printEthnicityEv, symObjAddr: 0x3EE8, symBinAddr: 0x10000C6A4, symSize: 0xA0 }
  - { offsetInCU: 0x7140, offset: 0x1F9C7, size: 0x8, addend: 0x0, symName: __ZNK11PersonClass15printOccupationEv, symObjAddr: 0x3F88, symBinAddr: 0x10000C744, symSize: 0x50 }
  - { offsetInCU: 0x7168, offset: 0x1F9EF, size: 0x8, addend: 0x0, symName: __ZNK11PersonClass19printEducationLevelEv, symObjAddr: 0x3FD8, symBinAddr: 0x10000C794, symSize: 0xA0 }
  - { offsetInCU: 0x7190, offset: 0x1FA17, size: 0x8, addend: 0x0, symName: __ZNSt3__15arrayINS_12basic_stringIcNS_11char_traitsIcEENS_9allocatorIcEEEELm18EED2Ev, symObjAddr: 0x4104, symBinAddr: 0x10000C834, symSize: 0x64 }
...
